; Function Attrs: mustprogress uwtable
define void @_Z8AresInitv(ptr dead_on_unwind noalias writable writeonly sret(%"class.absl::lts_20240722::Status") align 8 captures(none) initializes((0, 8)) %0) local_unnamed_addr #3 personality ptr @__gxx_personality_v0 {
  %2 = load atomic i64, ptr @_ZN9grpc_core10ConfigVars12config_vars_E acquire, align 8
  %.0.i.i.i.i = inttoptr i64 %2 to ptr
  %.not.i.i = icmp eq i64 %2, 0
  br i1 %.not.i.i, label %3, label %_ZN9grpc_core10ConfigVars3GetEv.exit.i

3:                                                ; preds = %1
  %4 = tail call noundef nonnull align 8 dereferenceable(280) ptr @_ZN9grpc_core10ConfigVars4LoadEv()
  br label %_ZN9grpc_core10ConfigVars3GetEv.exit.i

_ZN9grpc_core10ConfigVars3GetEv.exit.i:           ; preds = %3, %1
  %.0.i.i = phi ptr [ %4, %3 ], [ %.0.i.i.i.i, %1 ]
  %5 = getelementptr inbounds nuw i8, ptr %.0.i.i, i64 16
  %6 = load i64, ptr %5, align 8, !tbaa !17
  %7 = icmp eq i64 %6, 0
  br i1 %7, label %_Z24ShouldUseAresDnsResolverv.exit, label %8

8:                                                ; preds = %_ZN9grpc_core10ConfigVars3GetEv.exit.i
  %9 = getelementptr inbounds nuw i8, ptr %.0.i.i, i64 8
  %10 = load ptr, ptr %9, align 8, !tbaa !11
  %11 = tail call noundef zeroext i1 @_ZN4absl12lts_2024072216EqualsIgnoreCaseESt17basic_string_viewIcSt11char_traitsIcEES4_(i64 %6, ptr %10, i64 4, ptr nonnull @.str.63) #34
  br label %_Z24ShouldUseAresDnsResolverv.exit

_Z24ShouldUseAresDnsResolverv.exit:               ; preds = %_ZN9grpc_core10ConfigVars3GetEv.exit.i, %8
  store i64 1, ptr %0, align 8, !tbaa !18, !alias.scope !359
  ret void
}